target datalayout = "e-m:e-p270:32:32-p271:32:32-p272:64:64-i64:64-i128:128-f80:128-n8:16:32:64-S128"
target triple = "x86_64-pc-linux-gnu"

%struct.GCRef = type { i64 }
%struct.GCstr = type { %struct.GCRef, i8, i8, i8, i8, i32, i32, i32 }

@.str.7 = private unnamed_addr constant [10 x i8] c"[builtin:\00", align 1
@.str.8 = private unnamed_addr constant [10 x i8] c"[string \22\00", align 1
@.str.9 = private unnamed_addr constant [4 x i8] c"...\00", align 1
@.str.10 = private unnamed_addr constant [2 x i8] c"]\00", align 1
@.str.11 = private unnamed_addr constant [3 x i8] c"\22]\00", align 1

; Function Attrs: nounwind uwtable
define hidden void @lj_debug_shortname(ptr noundef %0, ptr noundef %1, i32 noundef %2) #0 {
  %4 = alloca ptr, align 8
  %5 = alloca ptr, align 8
  %6 = alloca i32, align 4
  %7 = alloca ptr, align 8
  %8 = alloca i64, align 8
  %9 = alloca i64, align 8
  store ptr %0, ptr %4, align 8, !tbaa !35
  store ptr %1, ptr %5, align 8, !tbaa !65
  store i32 %2, ptr %6, align 4, !tbaa !9
  call void @llvm.lifetime.start.p0(i64 8, ptr %7) #8
  %10 = load ptr, ptr %5, align 8, !tbaa !65
  %11 = getelementptr inbounds %struct.GCstr, ptr %10, i64 1
  store ptr %11, ptr %7, align 8, !tbaa !35
  %12 = load ptr, ptr %7, align 8, !tbaa !35
  %13 = load i8, ptr %12, align 1, !tbaa !21
  %14 = sext i8 %13 to i32
  %15 = icmp eq i32 %14, 61
  br i1 %15, label %16, label %23

16:                                               ; preds = %3
  %17 = load ptr, ptr %4, align 8, !tbaa !35
  %18 = load ptr, ptr %7, align 8, !tbaa !35
  %19 = getelementptr inbounds i8, ptr %18, i64 1
  %20 = call ptr @strncpy(ptr noundef %17, ptr noundef %19, i64 noundef 60) #8
  %21 = load ptr, ptr %4, align 8, !tbaa !35
  %22 = getelementptr inbounds i8, ptr %21, i64 59
  store i8 0, ptr %22, align 1, !tbaa !21
  br label %113

23:                                               ; preds = %3
  %24 = load ptr, ptr %7, align 8, !tbaa !35
  %25 = load i8, ptr %24, align 1, !tbaa !21
  %26 = sext i8 %25 to i32
  %27 = icmp eq i32 %26, 64
  br i1 %27, label %28, label %53

28:                                               ; preds = %23
  call void @llvm.lifetime.start.p0(i64 8, ptr %8) #8
  %29 = load ptr, ptr %5, align 8, !tbaa !65
  %30 = getelementptr inbounds nuw %struct.GCstr, ptr %29, i32 0, i32 7
  %31 = load i32, ptr %30, align 4, !tbaa !67
  %32 = sub i32 %31, 1
  %33 = zext i32 %32 to i64
  store i64 %33, ptr %8, align 8, !tbaa !69
  %34 = load ptr, ptr %7, align 8, !tbaa !35
  %35 = getelementptr inbounds nuw i8, ptr %34, i32 1
  store ptr %35, ptr %7, align 8, !tbaa !35
  %36 = load i64, ptr %8, align 8, !tbaa !69
  %37 = icmp uge i64 %36, 60
  br i1 %37, label %38, label %49

38:                                               ; preds = %28
  %39 = load i64, ptr %8, align 8, !tbaa !69
  %40 = sub i64 %39, 56
  %41 = load ptr, ptr %7, align 8, !tbaa !35
  %42 = getelementptr inbounds nuw i8, ptr %41, i64 %40
  store ptr %42, ptr %7, align 8, !tbaa !35
  %43 = load ptr, ptr %4, align 8, !tbaa !35
  %44 = getelementptr inbounds nuw i8, ptr %43, i32 1
  store ptr %44, ptr %4, align 8, !tbaa !35
  store i8 46, ptr %43, align 1, !tbaa !21
  %45 = load ptr, ptr %4, align 8, !tbaa !35
  %46 = getelementptr inbounds nuw i8, ptr %45, i32 1
  store ptr %46, ptr %4, align 8, !tbaa !35
  store i8 46, ptr %45, align 1, !tbaa !21
  %47 = load ptr, ptr %4, align 8, !tbaa !35
  %48 = getelementptr inbounds nuw i8, ptr %47, i32 1
  store ptr %48, ptr %4, align 8, !tbaa !35
  store i8 46, ptr %47, align 1, !tbaa !21
  br label %49

49:                                               ; preds = %38, %28
  %50 = load ptr, ptr %4, align 8, !tbaa !35
  %51 = load ptr, ptr %7, align 8, !tbaa !35
  %52 = call ptr @strcpy(ptr noundef %50, ptr noundef %51) #8
  call void @llvm.lifetime.end.p0(i64 8, ptr %8) #8
  br label %112

53:                                               ; preds = %23
  call void @llvm.lifetime.start.p0(i64 8, ptr %9) #8
  store i64 0, ptr %9, align 8, !tbaa !69
  br label %54

54:                                               ; preds = %66, %53
  %55 = load i64, ptr %9, align 8, !tbaa !69
  %56 = icmp ult i64 %55, 48
  br i1 %56, label %57, label %69

57:                                               ; preds = %54
  %58 = load ptr, ptr %7, align 8, !tbaa !35
  %59 = load i64, ptr %9, align 8, !tbaa !69
  %60 = getelementptr inbounds nuw i8, ptr %58, i64 %59
  %61 = load i8, ptr %60, align 1, !tbaa !21
  %62 = zext i8 %61 to i32
  %63 = icmp slt i32 %62, 32
  br i1 %63, label %64, label %65

64:                                               ; preds = %57
  br label %69

65:                                               ; preds = %57
  br label %66

66:                                               ; preds = %65
  %67 = load i64, ptr %9, align 8, !tbaa !69
  %68 = add i64 %67, 1
  store i64 %68, ptr %9, align 8, !tbaa !69
  br label %54, !llvm.loop !70

69:                                               ; preds = %64, %54
  %70 = load ptr, ptr %4, align 8, !tbaa !35
  %71 = load i32, ptr %6, align 4, !tbaa !9
  %72 = icmp eq i32 %71, -1
  %73 = select i1 %72, ptr @.str.7, ptr @.str.8
  %74 = call ptr @strcpy(ptr noundef %70, ptr noundef %73) #8
  %75 = load ptr, ptr %4, align 8, !tbaa !35
  %76 = getelementptr inbounds i8, ptr %75, i64 9
  store ptr %76, ptr %4, align 8, !tbaa !35
  %77 = load ptr, ptr %7, align 8, !tbaa !35
  %78 = load i64, ptr %9, align 8, !tbaa !69
  %79 = getelementptr inbounds nuw i8, ptr %77, i64 %78
  %80 = load i8, ptr %79, align 1, !tbaa !21
  %81 = sext i8 %80 to i32
  %82 = icmp ne i32 %81, 0
  br i1 %82, label %83, label %99

83:                                               ; preds = %69
  %84 = load i64, ptr %9, align 8, !tbaa !69
  %85 = icmp ugt i64 %84, 45
  br i1 %85, label %86, label %87

86:                                               ; preds = %83
  store i64 45, ptr %9, align 8, !tbaa !69
  br label %87

87:                                               ; preds = %86, %83
  %88 = load ptr, ptr %4, align 8, !tbaa !35
  %89 = load ptr, ptr %7, align 8, !tbaa !35
  %90 = load i64, ptr %9, align 8, !tbaa !69
  %91 = call ptr @strncpy(ptr noundef %88, ptr noundef %89, i64 noundef %90) #8
  %92 = load i64, ptr %9, align 8, !tbaa !69
  %93 = load ptr, ptr %4, align 8, !tbaa !35
  %94 = getelementptr inbounds nuw i8, ptr %93, i64 %92
  store ptr %94, ptr %4, align 8, !tbaa !35
  %95 = load ptr, ptr %4, align 8, !tbaa !35
  %96 = call ptr @strcpy(ptr noundef %95, ptr noundef @.str.9) #8
  %97 = load ptr, ptr %4, align 8, !tbaa !35
  %98 = getelementptr inbounds i8, ptr %97, i64 3
  store ptr %98, ptr %4, align 8, !tbaa !35
  br label %106

99:                                               ; preds = %69
  %100 = load ptr, ptr %4, align 8, !tbaa !35
  %101 = load ptr, ptr %7, align 8, !tbaa !35
  %102 = call ptr @strcpy(ptr noundef %100, ptr noundef %101) #8
  %103 = load i64, ptr %9, align 8, !tbaa !69
  %104 = load ptr, ptr %4, align 8, !tbaa !35
  %105 = getelementptr inbounds nuw i8, ptr %104, i64 %103
  store ptr %105, ptr %4, align 8, !tbaa !35
  br label %106

106:                                              ; preds = %99, %87
  %107 = load ptr, ptr %4, align 8, !tbaa !35
  %108 = load i32, ptr %6, align 4, !tbaa !9
  %109 = icmp eq i32 %108, -1
  %110 = select i1 %109, ptr @.str.10, ptr @.str.11
  %111 = call ptr @strcpy(ptr noundef %107, ptr noundef %110) #8
  call void @llvm.lifetime.end.p0(i64 8, ptr %9) #8
  br label %112

112:                                              ; preds = %106, %49
  br label %113

113:                                              ; preds = %112, %16
  call void @llvm.lifetime.end.p0(i64 8, ptr %7) #8
  ret void
}