; Function Attrs: nofree nounwind memory(argmem: readwrite) uwtable
define hidden void @lj_debug_shortname(ptr noundef %0, ptr noundef readonly captures(none) %1, i32 noundef %2) local_unnamed_addr #5 {
  %4 = getelementptr inbounds nuw i8, ptr %1, i64 24
  %5 = load i8, ptr %4, align 1, !tbaa !15
  switch i8 %5, label %.preheader [
    i8 61, label %6
    i8 64, label %10
  ]

6:                                                ; preds = %3
  %7 = getelementptr inbounds nuw i8, ptr %1, i64 25
  %8 = tail call ptr @strncpy(ptr noundef nonnull dereferenceable(1) %0, ptr noundef nonnull dereferenceable(1) %7, i64 noundef 60) #11
  %9 = getelementptr inbounds nuw i8, ptr %0, i64 59
  store i8 0, ptr %9, align 1, !tbaa !15
  br label %46

10:                                               ; preds = %3
  %11 = getelementptr inbounds nuw i8, ptr %1, i64 20
  %12 = load i32, ptr %11, align 4, !tbaa !51
  %13 = add i32 %12, -1
  %14 = getelementptr inbounds nuw i8, ptr %1, i64 25
  %15 = icmp ugt i32 %13, 59
  br i1 %15, label %16, label %23

16:                                               ; preds = %10
  %17 = zext i32 %13 to i64
  %18 = getelementptr i8, ptr %14, i64 %17
  %19 = getelementptr i8, ptr %18, i64 -56
  %20 = getelementptr inbounds nuw i8, ptr %0, i64 1
  store i8 46, ptr %0, align 1, !tbaa !15
  %21 = getelementptr inbounds nuw i8, ptr %0, i64 2
  store i8 46, ptr %20, align 1, !tbaa !15
  %22 = getelementptr inbounds nuw i8, ptr %0, i64 3
  store i8 46, ptr %21, align 1, !tbaa !15
  br label %23

23:                                               ; preds = %16, %10
  %.039 = phi ptr [ %19, %16 ], [ %14, %10 ]
  %.038 = phi ptr [ %22, %16 ], [ %0, %10 ]
  %24 = tail call ptr @strcpy(ptr noundef nonnull dereferenceable(1) %.038, ptr noundef nonnull dereferenceable(1) %.039) #11
  br label %46

.preheader:                                       ; preds = %3, %28
  %.042 = phi i64 [ %29, %28 ], [ 0, %3 ]
  %25 = getelementptr inbounds nuw i8, ptr %4, i64 %.042
  %26 = load i8, ptr %25, align 1, !tbaa !15
  %27 = icmp ult i8 %26, 32
  br i1 %27, label %30, label %28

28:                                               ; preds = %.preheader
  %29 = add nuw nsw i64 %.042, 1
  %exitcond.not = icmp eq i64 %29, 48
  br i1 %exitcond.not, label %30, label %.preheader, !llvm.loop !53

30:                                               ; preds = %.preheader, %28
  %.0.lcssa = phi i64 [ %.042, %.preheader ], [ 48, %28 ]
  %31 = icmp eq i32 %2, -1
  %32 = select i1 %31, ptr @.str.7, ptr @.str.8
  tail call void @llvm.memcpy.p0.p0.i64(ptr noundef nonnull align 1 dereferenceable(10) %0, ptr noundef nonnull align 1 dereferenceable(10) %32, i64 10, i1 false) #11
  %33 = getelementptr inbounds nuw i8, ptr %0, i64 9
  %34 = getelementptr inbounds nuw i8, ptr %4, i64 %.0.lcssa
  %35 = load i8, ptr %34, align 1, !tbaa !15
  %.not = icmp eq i8 %35, 0
  br i1 %.not, label %40, label %36

36:                                               ; preds = %30
  %spec.store.select = tail call i64 @llvm.umin.i64(i64 %.0.lcssa, i64 45)
  %37 = tail call ptr @strncpy(ptr noundef nonnull %33, ptr noundef nonnull %4, i64 noundef %spec.store.select) #11
  %38 = getelementptr inbounds nuw i8, ptr %33, i64 %spec.store.select
  store i32 3026478, ptr %38, align 1
  %39 = getelementptr inbounds nuw i8, ptr %38, i64 3
  br label %43

40:                                               ; preds = %30
  %41 = tail call ptr @strcpy(ptr noundef nonnull dereferenceable(1) %33, ptr noundef nonnull dereferenceable(1) %4) #11
  %42 = getelementptr inbounds nuw i8, ptr %33, i64 %.0.lcssa
  br label %43

43:                                               ; preds = %40, %36
  %.1 = phi ptr [ %39, %36 ], [ %42, %40 ]
  %44 = select i1 %31, ptr @.str.10, ptr @.str.11
  %45 = tail call ptr @strcpy(ptr noundef nonnull dereferenceable(1) %.1, ptr noundef nonnull dereferenceable(1) %44) #11
  br label %46

46:                                               ; preds = %23, %43, %6
  ret void
}